target datalayout = "e-m:e-p270:32:32-p271:32:32-p272:64:64-i64:64-i128:128-f80:128-n8:16:32:64-S128"
target triple = "x86_64-pc-linux-gnu"

%struct.job_record = type { i32, ptr, ptr, ptr, ptr, i16, i32, i32, i32, ptr, i32, ptr, ptr, i16, ptr, double, i64, ptr, ptr, ptr, ptr, ptr, ptr, i32, ptr, i32, i64, i64, i32, i32, ptr, i16, i64, i64, i8, i32, ptr, ptr, ptr, ptr, ptr, ptr, ptr, ptr, i32, ptr, ptr, i32, ptr, i32, ptr, i32, ptr, i32, ptr, ptr, ptr, ptr, ptr, ptr, i32, i16, i64, ptr, ptr, ptr, ptr, %struct.acct_policy_limit_set_t, i16, ptr, ptr, ptr, ptr, ptr, i32, ptr, ptr, ptr, ptr, ptr, i32, i32, ptr, ptr, ptr, i16, ptr, ptr, i8, ptr, ptr, i64, i64, i8, i32, i32, i8, i32, ptr, i32, i64, i32, ptr, ptr, ptr, i8, i16, i64, i32, ptr, ptr, ptr, ptr, ptr, i16, i32, ptr, ptr, ptr, ptr, i32, ptr, i32, i16, i64, ptr, i32, i32, ptr, i64, ptr, ptr, i64, i32, i32, i64, i32, i32, ptr, ptr, ptr, ptr, ptr, ptr, ptr, ptr, ptr, ptr, ptr, ptr, i32, ptr, i16, i16, i16, i16, ptr, i32, i32, i8, i64 }
%struct.acct_policy_limit_set_t = type { i16, i16, ptr }
%struct.agent_arg_t = type { i32, i16, i32, i8, ptr, ptr, i16, i32, ptr, i16 }
%struct.stepmgr_ops_t = type { ptr, ptr, ptr, ptr, ptr, ptr, ptr, ptr, ptr, ptr }
%struct.srun_ping_msg = type { i32 }

@.str = private unnamed_addr constant [12 x i8] c"srun_comm.c\00", align 1
@stepmgr_ops = external global ptr, align 8
@__func__._srun_agent_launch = private unnamed_addr constant [19 x i8] c"_srun_agent_launch\00", align 1
@__func__._srun_ping = private unnamed_addr constant [11 x i8] c"_srun_ping\00", align 1

; Function Attrs: nounwind uwtable
define internal void @_srun_agent_launch(ptr noundef %0, ptr noundef %1, i32 noundef %2, ptr noundef %3, i32 noundef %4, i16 noundef zeroext %5) #0 {
  %7 = alloca ptr, align 8
  %8 = alloca ptr, align 8
  %9 = alloca i32, align 4
  %10 = alloca ptr, align 8
  %11 = alloca i32, align 4
  %12 = alloca i16, align 2
  %13 = alloca ptr, align 8
  store ptr %0, ptr %7, align 8
  store ptr %1, ptr %8, align 8
  store i32 %2, ptr %9, align 4
  store ptr %3, ptr %10, align 8
  store i32 %4, ptr %11, align 4
  store i16 %5, ptr %12, align 2
  call void @llvm.lifetime.start.p0(i64 8, ptr %13) #6
  %14 = call ptr @slurm_xcalloc(i64 noundef 1, i64 noundef 56, i1 noundef zeroext true, i1 noundef zeroext false, ptr noundef @.str, i32 noundef 61, ptr noundef @__func__._srun_agent_launch)
  store ptr %14, ptr %13, align 8
  %15 = load ptr, ptr %13, align 8
  %16 = getelementptr inbounds nuw %struct.agent_arg_t, ptr %15, i32 0, i32 0
  store i32 1, ptr %16, align 8
  %17 = load ptr, ptr %13, align 8
  %18 = getelementptr inbounds nuw %struct.agent_arg_t, ptr %17, i32 0, i32 1
  store i16 0, ptr %18, align 4
  %19 = load ptr, ptr %7, align 8
  %20 = load ptr, ptr %13, align 8
  %21 = getelementptr inbounds nuw %struct.agent_arg_t, ptr %20, i32 0, i32 4
  store ptr %19, ptr %21, align 8
  %22 = load ptr, ptr %8, align 8
  %23 = call ptr @hostlist_create(ptr noundef %22)
  %24 = load ptr, ptr %13, align 8
  %25 = getelementptr inbounds nuw %struct.agent_arg_t, ptr %24, i32 0, i32 5
  store ptr %23, ptr %25, align 8
  %26 = load i32, ptr %9, align 4
  %27 = load ptr, ptr %13, align 8
  %28 = getelementptr inbounds nuw %struct.agent_arg_t, ptr %27, i32 0, i32 7
  store i32 %26, ptr %28, align 4
  %29 = load ptr, ptr %10, align 8
  %30 = load ptr, ptr %13, align 8
  %31 = getelementptr inbounds nuw %struct.agent_arg_t, ptr %30, i32 0, i32 8
  store ptr %29, ptr %31, align 8
  %32 = load ptr, ptr %13, align 8
  %33 = load i32, ptr %11, align 4
  call void @set_agent_arg_r_uid(ptr noundef %32, i32 noundef %33)
  %34 = load i16, ptr %12, align 2
  %35 = zext i16 %34 to i32
  %36 = icmp slt i32 11008, %35
  br i1 %36, label %37, label %38

37:                                               ; preds = %6
  br label %41

38:                                               ; preds = %6
  %39 = load i16, ptr %12, align 2
  %40 = zext i16 %39 to i32
  br label %41

41:                                               ; preds = %38, %37
  %42 = phi i32 [ 11008, %37 ], [ %40, %38 ]
  %43 = trunc i32 %42 to i16
  %44 = load ptr, ptr %13, align 8
  %45 = getelementptr inbounds nuw %struct.agent_arg_t, ptr %44, i32 0, i32 6
  store i16 %43, ptr %45, align 8
  %46 = load ptr, ptr @stepmgr_ops, align 8
  %47 = getelementptr inbounds nuw %struct.stepmgr_ops_t, ptr %46, i32 0, i32 8
  %48 = load ptr, ptr %47, align 8
  %49 = load ptr, ptr %13, align 8
  call void %48(ptr noundef %49)
  call void @llvm.lifetime.end.p0(i64 8, ptr %13) #6
  ret void
}

; Function Attrs: nounwind uwtable
define internal i32 @_srun_ping(ptr noundef %0, ptr noundef %1) #0 {
  %3 = alloca i32, align 4
  %4 = alloca ptr, align 8
  %5 = alloca ptr, align 8
  %6 = alloca ptr, align 8
  %7 = alloca ptr, align 8
  %8 = alloca ptr, align 8
  %9 = alloca ptr, align 8
  %10 = alloca i32, align 4
  store ptr %0, ptr %4, align 8
  store ptr %1, ptr %5, align 8
  call void @llvm.lifetime.start.p0(i64 8, ptr %6) #6
  %11 = load ptr, ptr %4, align 8
  store ptr %11, ptr %6, align 8
  call void @llvm.lifetime.start.p0(i64 8, ptr %7) #6
  %12 = load ptr, ptr %5, align 8
  store ptr %12, ptr %7, align 8
  call void @llvm.lifetime.start.p0(i64 8, ptr %8) #6
  call void @llvm.lifetime.start.p0(i64 8, ptr %9) #6
  %13 = load ptr, ptr %6, align 8
  %14 = getelementptr inbounds nuw %struct.job_record, ptr %13, i32 0, i32 60
  %15 = load i32, ptr %14, align 8
  %16 = and i32 %15, 255
  %17 = icmp eq i32 %16, 1
  br i1 %17, label %18, label %25

18:                                               ; preds = %2
  %19 = load ptr, ptr %6, align 8
  %20 = getelementptr inbounds nuw %struct.job_record, ptr %19, i32 0, i32 132
  %21 = load i64, ptr %20, align 8
  %22 = load ptr, ptr %7, align 8
  %23 = load i64, ptr %22, align 8
  %24 = icmp sgt i64 %21, %23
  br i1 %24, label %25, label %26

25:                                               ; preds = %18, %2
  store i32 0, ptr %3, align 4
  store i32 1, ptr %10, align 4
  br label %68

26:                                               ; preds = %18
  %27 = load ptr, ptr %6, align 8
  %28 = getelementptr inbounds nuw %struct.job_record, ptr %27, i32 0, i32 85
  %29 = load i16, ptr %28, align 8
  %30 = icmp ne i16 %29, 0
  br i1 %30, label %31, label %41

31:                                               ; preds = %26
  %32 = load ptr, ptr %6, align 8
  %33 = getelementptr inbounds nuw %struct.job_record, ptr %32, i32 0, i32 4
  %34 = load ptr, ptr %33, align 8
  %35 = icmp ne ptr %34, null
  br i1 %35, label %36, label %41

36:                                               ; preds = %31
  %37 = load ptr, ptr %6, align 8
  %38 = getelementptr inbounds nuw %struct.job_record, ptr %37, i32 0, i32 116
  %39 = load ptr, ptr %38, align 8
  %40 = icmp ne ptr %39, null
  br i1 %40, label %42, label %41

41:                                               ; preds = %36, %31, %26
  store i32 0, ptr %3, align 4
  store i32 1, ptr %10, align 4
  br label %68

42:                                               ; preds = %36
  %43 = call ptr @slurm_xcalloc(i64 noundef 1, i64 noundef 128, i1 noundef zeroext true, i1 noundef zeroext false, ptr noundef @.str, i32 noundef 237, ptr noundef @__func__._srun_ping)
  store ptr %43, ptr %8, align 8
  %44 = call ptr @slurm_xcalloc(i64 noundef 1, i64 noundef 4, i1 noundef zeroext true, i1 noundef zeroext false, ptr noundef @.str, i32 noundef 238, ptr noundef @__func__._srun_ping)
  store ptr %44, ptr %9, align 8
  %45 = load ptr, ptr %8, align 8
  %46 = load ptr, ptr %6, align 8
  %47 = getelementptr inbounds nuw %struct.job_record, ptr %46, i32 0, i32 85
  %48 = load i16, ptr %47, align 8
  %49 = load ptr, ptr %6, align 8
  %50 = getelementptr inbounds nuw %struct.job_record, ptr %49, i32 0, i32 116
  %51 = load ptr, ptr %50, align 8
  call void @slurm_set_addr(ptr noundef %45, i16 noundef zeroext %48, ptr noundef %51)
  %52 = load ptr, ptr %6, align 8
  %53 = getelementptr inbounds nuw %struct.job_record, ptr %52, i32 0, i32 53
  %54 = load i32, ptr %53, align 8
  %55 = load ptr, ptr %9, align 8
  %56 = getelementptr inbounds nuw %struct.srun_ping_msg, ptr %55, i32 0, i32 0
  store i32 %54, ptr %56, align 4
  %57 = load ptr, ptr %8, align 8
  %58 = load ptr, ptr %6, align 8
  %59 = getelementptr inbounds nuw %struct.job_record, ptr %58, i32 0, i32 4
  %60 = load ptr, ptr %59, align 8
  %61 = load ptr, ptr %9, align 8
  %62 = load ptr, ptr %6, align 8
  %63 = getelementptr inbounds nuw %struct.job_record, ptr %62, i32 0, i32 150
  %64 = load i32, ptr %63, align 8
  %65 = load ptr, ptr %6, align 8
  %66 = getelementptr inbounds nuw %struct.job_record, ptr %65, i32 0, i32 123
  %67 = load i16, ptr %66, align 4
  call void @_srun_agent_launch(ptr noundef %57, ptr noundef %60, i32 noundef 7001, ptr noundef %61, i32 noundef %64, i16 noundef zeroext %67)
  store i32 0, ptr %3, align 4
  store i32 1, ptr %10, align 4
  br label %68

68:                                               ; preds = %42, %41, %25
  call void @llvm.lifetime.end.p0(i64 8, ptr %9) #6
  call void @llvm.lifetime.end.p0(i64 8, ptr %8) #6
  call void @llvm.lifetime.end.p0(i64 8, ptr %7) #6
  call void @llvm.lifetime.end.p0(i64 8, ptr %6) #6
  %69 = load i32, ptr %3, align 4
  ret i32 %69
}