; Function Attrs: nounwind uwtable
define internal noundef i32 @_srun_ping(ptr noundef readonly captures(none) %0, ptr noundef readonly captures(none) %1) #0 {
  %3 = getelementptr inbounds nuw i8, ptr %0, i64 448
  %4 = load i32, ptr %3, align 8
  %5 = and i32 %4, 255
  %6 = icmp eq i32 %5, 1
  br i1 %6, label %7, label %45

7:                                                ; preds = %2
  %8 = getelementptr inbounds nuw i8, ptr %0, i64 968
  %9 = load i64, ptr %8, align 8
  %10 = load i64, ptr %1, align 8
  %11 = icmp sgt i64 %9, %10
  br i1 %11, label %45, label %12

12:                                               ; preds = %7
  %13 = getelementptr inbounds nuw i8, ptr %0, i64 640
  %14 = load i16, ptr %13, align 8
  %.not = icmp eq i16 %14, 0
  br i1 %.not, label %45, label %15

15:                                               ; preds = %12
  %16 = getelementptr inbounds nuw i8, ptr %0, i64 32
  %17 = load ptr, ptr %16, align 8
  %.not18 = icmp eq ptr %17, null
  br i1 %.not18, label %45, label %18

18:                                               ; preds = %15
  %19 = getelementptr inbounds nuw i8, ptr %0, i64 856
  %20 = load ptr, ptr %19, align 8
  %.not19 = icmp eq ptr %20, null
  br i1 %.not19, label %45, label %21

21:                                               ; preds = %18
  %22 = tail call ptr @slurm_xcalloc(i64 noundef 1, i64 noundef 128, i1 noundef zeroext true, i1 noundef zeroext false, ptr noundef nonnull @.str, i32 noundef 237, ptr noundef nonnull @__func__._srun_ping) #6
  %23 = tail call ptr @slurm_xcalloc(i64 noundef 1, i64 noundef 4, i1 noundef zeroext true, i1 noundef zeroext false, ptr noundef nonnull @.str, i32 noundef 238, ptr noundef nonnull @__func__._srun_ping) #6
  %24 = load i16, ptr %13, align 8
  %25 = load ptr, ptr %19, align 8
  tail call void @slurm_set_addr(ptr noundef %22, i16 noundef zeroext %24, ptr noundef %25) #6
  %26 = getelementptr inbounds nuw i8, ptr %0, i64 392
  %27 = load i32, ptr %26, align 8
  store i32 %27, ptr %23, align 4
  %28 = load ptr, ptr %16, align 8
  %29 = getelementptr inbounds nuw i8, ptr %0, i64 1096
  %30 = load i32, ptr %29, align 8
  %31 = getelementptr inbounds nuw i8, ptr %0, i64 908
  %32 = load i16, ptr %31, align 4
  %33 = tail call ptr @slurm_xcalloc(i64 noundef 1, i64 noundef 56, i1 noundef zeroext true, i1 noundef zeroext false, ptr noundef nonnull @.str, i32 noundef 61, ptr noundef nonnull @__func__._srun_agent_launch) #6
  store i32 1, ptr %33, align 8
  %34 = getelementptr inbounds nuw i8, ptr %33, i64 4
  store i16 0, ptr %34, align 4
  %35 = getelementptr inbounds nuw i8, ptr %33, i64 16
  store ptr %22, ptr %35, align 8
  %36 = tail call ptr @hostlist_create(ptr noundef %28) #6
  %37 = getelementptr inbounds nuw i8, ptr %33, i64 24
  store ptr %36, ptr %37, align 8
  %38 = getelementptr inbounds nuw i8, ptr %33, i64 36
  store i32 7001, ptr %38, align 4
  %39 = getelementptr inbounds nuw i8, ptr %33, i64 40
  store ptr %23, ptr %39, align 8
  tail call void @set_agent_arg_r_uid(ptr noundef nonnull %33, i32 noundef %30) #6
  %40 = tail call i16 @llvm.umin.i16(i16 %32, i16 11008)
  %41 = getelementptr inbounds nuw i8, ptr %33, i64 32
  store i16 %40, ptr %41, align 8
  %42 = load ptr, ptr @stepmgr_ops, align 8
  %43 = getelementptr inbounds nuw i8, ptr %42, i64 64
  %44 = load ptr, ptr %43, align 8
  tail call void %44(ptr noundef nonnull %33) #6
  br label %45

45:                                               ; preds = %12, %15, %18, %2, %7, %21
  ret i32 0
}